(lp0
(dp1
S'align_algo'
p2
S'ha'
p3
sS'rand'
p4
I00
sS'nfeature'
p5
S'1300'
p6
sS'name'
p7
S'HA (1300)'
p8
sS'kernel'
p9
Nsa(dp10
g2
S'pha_em'
p11
sg4
I01
sg5
S'10'
p12
sg7
S'pHA 10'
p13
sg9
Nsa(dp14
g2
g11
sg4
I01
sg5
S'50'
p15
sg7
S'pHA 50'
p16
sg9
Nsa(dp17
g2
g11
sg4
I01
sg5
S'100'
p18
sg7
S'pHA 100'
p19
sg9
Nsa(dp20
g2
g11
sg4
I01
sg5
S'500'
p21
sg7
S'pHA 500'
p22
sg9
Nsa(dp23
g2
g11
sg4
I01
sg5
g6
sg7
S'pHA 1300'
p24
sg9
Nsa(dp25
g2
S'ppca'
p26
sg4
I00
sg5
g12
sg7
S'pPCA 10'
p27
sg9
Nsa(dp28
g2
g26
sg4
I00
sg5
g15
sg7
S'pPCA 50'
p29
sg9
Nsa(dp30
g2
g26
sg4
I00
sg5
g18
sg7
S'pPCA 100'
p31
sg9
Nsa(dp32
g2
g26
sg4
I00
sg5
g21
sg7
S'pPCA 500'
p33
sg9
Nsa(dp34
g2
g26
sg4
I00
sg5
g6
sg7
S'pPCA 1300'
p35
sg9
Nsa(dp36
g2
S'pica'
p37
sg4
I01
sg5
g12
sg7
S'pICA 10'
p38
sg9
Nsa(dp39
g2
g37
sg4
I01
sg5
g15
sg7
S'pICA 50'
p40
sg9
Nsa(dp41
g2
g37
sg4
I01
sg5
g18
sg7
S'pICA 100'
p42
sg9
Nsa(dp43
g2
g37
sg4
I01
sg5
g21
sg7
S'pICA 500'
p44
sg9
Nsa(dp45
g2
g37
sg4
I01
sg5
g6
sg7
S'pICA 1300'
p46
sg9
Nsa.