(lp0
(dp1
S'align_algo'
p2
S'ha'
p3
sS'rand'
p4
I00
sS'nfeature'
p5
S'1300'
p6
sS'name'
p7
S'HA (1300vx)'
p8
sS'kernel'
p9
Nsa(dp10
g2
S'ha_syn'
p11
sg4
I01
sg5
S'10'
p12
sg7
S'pHAc 10'
p13
sg9
Nsa(dp14
g2
g11
sg4
I01
sg5
S'50'
p15
sg7
S'pHAc 50'
p16
sg9
Nsa(dp17
g2
g11
sg4
I01
sg5
S'100'
p18
sg7
S'pHAc 100'
p19
sg9
Nsa(dp20
g2
g11
sg4
I01
sg5
S'500'
p21
sg7
S'pHAc 500'
p22
sg9
Nsa(dp23
g2
g11
sg4
I01
sg5
g6
sg7
S'pHAc 1300'
p24
sg9
Nsa.