(lp0
(dp1
S'align_algo'
p2
S'ha'
p3
sS'rand'
p4
I00
sS'nfeature'
p5
S'850'
p6
sS'name'
p7
S'HA (850)'
p8
sS'kernel'
p9
Nsa(dp10
g2
S'ha_syn'
p11
sg4
I01
sg5
S'10'
p12
sg7
S'pHAc 10'
p13
sg9
Nsa(dp14
g2
g11
sg4
I01
sg5
S'50'
p15
sg7
S'pHAc 50'
p16
sg9
Nsa(dp17
g2
g11
sg4
I01
sg5
S'100'
p18
sg7
S'pHAc 100'
p19
sg9
Nsa(dp20
g2
g11
sg4
I01
sg5
S'400'
p21
sg7
S'pHAc 400'
p22
sg9
Nsa(dp23
g2
g11
sg4
I01
sg5
S'500'
p24
sg7
S'pHAc 500'
p25
sg9
Nsa(dp26
g2
g11
sg4
I01
sg5
S'600'
p27
sg7
S'pHAc 600'
p28
sg9
Nsa(dp29
g2
g11
sg4
I01
sg5
S'700'
p30
sg7
S'pHAc 700'
p31
sg9
Nsa(dp32
g2
g11
sg4
I01
sg5
g6
sg7
S'pHAc 850'
p33
sg9
Nsa.