(lp0
(dp1
S'align_algo'
p2
S'noalign'
p3
sS'rand'
p4
I00
sS'nfeature'
p5
S'1300'
p6
sS'name'
p7
g3
sS'kernel'
p8
Nsa(dp9
g2
S'ha'
p10
sg4
I00
sg5
g6
sg7
S'HA'
p11
sg8
Nsa(dp12
g2
S'pha_em'
p13
sg4
I01
sg5
S'10'
p14
sg7
S'pHA 10'
p15
sg8
Nsa(dp16
g2
g13
sg4
I01
sg5
S'50'
p17
sg7
S'pHA 50'
p18
sg8
Nsa(dp19
g2
g13
sg4
I01
sg5
S'100'
p20
sg7
S'pHA 100'
p21
sg8
Nsa(dp22
g2
g13
sg4
I01
sg5
S'500'
p23
sg7
S'pHA 500'
p24
sg8
Nsa(dp25
g2
g13
sg4
I01
sg5
g6
sg7
S'pHA 1300'
p26
sg8
Nsa.