(lp0
(dp1
S'align_algo'
p2
S'ha'
p3
sS'rand'
p4
I00
sS'nfeature'
p5
S'1300'
p6
sS'name'
p7
S'HA'
p8
sS'kernel'
p9
Nsa(dp10
g2
S'pha_em'
p11
sg4
I00
sg5
g6
sg7
S'pHA I'
p12
sg9
Nsa(dp13
g2
g11
sg4
I01
sg5
S'50'
p14
sg7
S'pHA 50'
p15
sg9
Nsa(dp16
g2
g11
sg4
I01
sg5
g6
sg7
S'pHA 1300'
p17
sg9
Nsa.