(lp0
(dp1
S'align_algo'
p2
S'ha'
p3
sS'rand'
p4
I00
sS'nfeature'
p5
S'1300'
p6
sS'name'
p7
S'HA'
p8
sS'kernel'
p9
Nsa(dp10
g2
S'pha_em'
p11
sg4
I00
sg5
g6
sg7
S'pHA I'
p12
sg9
Nsa(dp13
g2
g11
sg4
I01
sg5
S'10'
p14
sg7
S'pHA 10'
p15
sg9
Nsa(dp16
g2
g11
sg4
I01
sg5
S'50'
p17
sg7
S'pHA 50'
p18
sg9
Nsa(dp19
g2
g11
sg4
I01
sg5
S'100'
p20
sg7
S'pHA 100'
p21
sg9
Nsa(dp22
g2
g11
sg4
I01
sg5
S'500'
p23
sg7
S'pHA 500'
p24
sg9
Nsa(dp25
g2
g11
sg4
I01
sg5
g6
sg7
S'pHA 1300'
p26
sg9
Nsa.